; Function Attrs: mustprogress uwtable
define void @_ZN8Paintbox18setForegroundColorER6QColor(ptr nocapture noundef nonnull readonly align 8 dereferenceable(844) %0, ptr nocapture noundef nonnull readonly align 4 dereferenceable(14) %1) local_unnamed_addr #0 align 2 {
  %3 = alloca %class.QColor, align 4
  %4 = getelementptr inbounds i8, ptr %0, i64 256
  %5 = load ptr, ptr %4, align 8
  %6 = load i32, ptr %1, align 4
  store i32 %6, ptr %3, align 4
  %7 = getelementptr inbounds i8, ptr %3, i64 4
  %8 = getelementptr inbounds i8, ptr %1, i64 4
  call void @llvm.memcpy.p0.p0.i64(ptr noundef nonnull align 4 dereferenceable(10) %7, ptr noundef nonnull align 4 dereferenceable(10) %8, i64 10, i1 false)
  call void @_ZN10Colorframe8setColorE6QColor(ptr noundef nonnull align 8 dereferenceable(48) %5, ptr noundef nonnull %3)
  ret void
}